; Function Attrs: mustprogress nofree norecurse nosync nounwind memory(argmem: readwrite) uwtable
define void @_ZN5boost4urls6detail8url_impl15apply_authorityERKNS0_14authority_viewE(ptr nocapture noundef nonnull align 8 dereferenceable(171) %0, ptr nocapture noundef nonnull readonly align 8 dereferenceable(184) %1) local_unnamed_addr #3 align 2 {
  %3 = getelementptr inbounds nuw i8, ptr %1, i64 16
  %4 = getelementptr inbounds i8, ptr %1, i64 24
  %5 = load i64, ptr %4, align 8, !tbaa !13
  %6 = load i64, ptr %3, align 8, !tbaa !13
  %7 = getelementptr inbounds nuw i8, ptr %0, i64 170
  %8 = load i8, ptr %7, align 2, !tbaa !23
  %9 = icmp eq i8 %8, 2
  %10 = select i1 %9, i64 0, i64 2
  %11 = getelementptr inbounds nuw i8, ptr %0, i64 8
  %12 = getelementptr inbounds i8, ptr %0, i64 16
  %13 = load i64, ptr %12, align 8, !tbaa !13
  %14 = load i64, ptr %11, align 8, !tbaa !13
  %15 = add i64 %6, %13
  %16 = sub i64 %5, %15
  %.neg.i = add i64 %16, %14
  %17 = add i64 %.neg.i, %10
  br label %18

18:                                               ; preds = %18, %2
  %indvars.iv.i = phi i64 [ 0, %2 ], [ %indvars.iv.next.i, %18 ]
  %indvars.iv.next.i = add nuw nsw i64 %indvars.iv.i, 1
  %19 = getelementptr inbounds [8 x i64], ptr %11, i64 0, i64 %indvars.iv.next.i
  %20 = load i64, ptr %19, align 8, !tbaa !13
  %21 = add i64 %17, %20
  store i64 %21, ptr %19, align 8, !tbaa !13
  %exitcond.not.i = icmp eq i64 %indvars.iv.next.i, 7
  br i1 %exitcond.not.i, label %_ZN5boost4urls6detail8url_impl8set_sizeEim.exit, label %18, !llvm.loop !14

_ZN5boost4urls6detail8url_impl8set_sizeEim.exit:  ; preds = %18
  %22 = getelementptr inbounds i8, ptr %1, i64 32
  %23 = load i64, ptr %22, align 8, !tbaa !13
  %24 = load i64, ptr %4, align 8, !tbaa !13
  %25 = getelementptr inbounds i8, ptr %0, i64 24
  %26 = load i64, ptr %25, align 8, !tbaa !13
  %27 = load i64, ptr %12, align 8, !tbaa !13
  %28 = add i64 %24, %26
  %29 = sub i64 %23, %28
  %30 = add i64 %29, %27
  br label %31

31:                                               ; preds = %31, %_ZN5boost4urls6detail8url_impl8set_sizeEim.exit
  %indvars.iv.i12 = phi i64 [ 1, %_ZN5boost4urls6detail8url_impl8set_sizeEim.exit ], [ %indvars.iv.next.i13, %31 ]
  %indvars.iv.next.i13 = add nuw nsw i64 %indvars.iv.i12, 1
  %32 = getelementptr inbounds [8 x i64], ptr %11, i64 0, i64 %indvars.iv.next.i13
  %33 = load i64, ptr %32, align 8, !tbaa !13
  %34 = add i64 %30, %33
  store i64 %34, ptr %32, align 8, !tbaa !13
  %exitcond.not.i14 = icmp eq i64 %indvars.iv.next.i13, 7
  br i1 %exitcond.not.i14, label %_ZN5boost4urls6detail8url_impl8set_sizeEim.exit15, label %31, !llvm.loop !14

_ZN5boost4urls6detail8url_impl8set_sizeEim.exit15: ; preds = %31
  %35 = getelementptr inbounds nuw i8, ptr %1, i64 80
  %36 = load i64, ptr %35, align 8, !tbaa !13
  %37 = getelementptr inbounds nuw i8, ptr %0, i64 72
  store i64 %36, ptr %37, align 8, !tbaa !13
  %38 = getelementptr inbounds i8, ptr %1, i64 88
  %39 = load i64, ptr %38, align 8, !tbaa !13
  %40 = getelementptr inbounds i8, ptr %0, i64 80
  store i64 %39, ptr %40, align 8, !tbaa !13
  %41 = getelementptr inbounds nuw i8, ptr %1, i64 172
  %42 = load i32, ptr %41, align 4, !tbaa !24
  %43 = getelementptr inbounds nuw i8, ptr %0, i64 164
  store i32 %42, ptr %43, align 4, !tbaa !21
  %44 = getelementptr inbounds nuw i8, ptr %1, i64 168
  %45 = load i16, ptr %44, align 8, !tbaa !26
  %46 = getelementptr inbounds nuw i8, ptr %0, i64 160
  store i16 %45, ptr %46, align 8, !tbaa !22
  %47 = getelementptr inbounds i8, ptr %1, i64 40
  %48 = load i64, ptr %47, align 8, !tbaa !13
  %49 = load i64, ptr %22, align 8, !tbaa !13
  %50 = getelementptr inbounds i8, ptr %0, i64 32
  %51 = load i64, ptr %50, align 8, !tbaa !13
  %52 = load i64, ptr %25, align 8, !tbaa !13
  %53 = add i64 %49, %51
  %54 = sub i64 %48, %53
  %55 = add i64 %54, %52
  br label %56

56:                                               ; preds = %56, %_ZN5boost4urls6detail8url_impl8set_sizeEim.exit15
  %indvars.iv.i17 = phi i64 [ 2, %_ZN5boost4urls6detail8url_impl8set_sizeEim.exit15 ], [ %indvars.iv.next.i18, %56 ]
  %indvars.iv.next.i18 = add nuw nsw i64 %indvars.iv.i17, 1
  %57 = getelementptr inbounds [8 x i64], ptr %11, i64 0, i64 %indvars.iv.next.i18
  %58 = load i64, ptr %57, align 8, !tbaa !13
  %59 = add i64 %55, %58
  store i64 %59, ptr %57, align 8, !tbaa !13
  %exitcond.not.i19 = icmp eq i64 %indvars.iv.next.i18, 7
  br i1 %exitcond.not.i19, label %_ZN5boost4urls6detail8url_impl8set_sizeEim.exit20, label %56, !llvm.loop !14

_ZN5boost4urls6detail8url_impl8set_sizeEim.exit20: ; preds = %56
  %60 = getelementptr inbounds i8, ptr %1, i64 48
  %61 = load i64, ptr %60, align 8, !tbaa !13
  %62 = load i64, ptr %47, align 8, !tbaa !13
  %63 = getelementptr inbounds i8, ptr %0, i64 40
  %64 = load i64, ptr %63, align 8, !tbaa !13
  %65 = load i64, ptr %50, align 8, !tbaa !13
  %66 = add i64 %62, %64
  %67 = sub i64 %61, %66
  %68 = add i64 %67, %65
  br label %69

69:                                               ; preds = %69, %_ZN5boost4urls6detail8url_impl8set_sizeEim.exit20
  %indvars.iv.i22 = phi i64 [ 3, %_ZN5boost4urls6detail8url_impl8set_sizeEim.exit20 ], [ %indvars.iv.next.i23, %69 ]
  %indvars.iv.next.i23 = add nuw nsw i64 %indvars.iv.i22, 1
  %70 = getelementptr inbounds [8 x i64], ptr %11, i64 0, i64 %indvars.iv.next.i23
  %71 = load i64, ptr %70, align 8, !tbaa !13
  %72 = add i64 %68, %71
  store i64 %72, ptr %70, align 8, !tbaa !13
  %exitcond.not.i24 = icmp eq i64 %indvars.iv.next.i23, 7
  br i1 %exitcond.not.i24, label %_ZN5boost4urls6detail8url_impl8set_sizeEim.exit25, label %69, !llvm.loop !14

_ZN5boost4urls6detail8url_impl8set_sizeEim.exit25: ; preds = %69
  %73 = getelementptr inbounds nuw i8, ptr %0, i64 144
  %74 = getelementptr inbounds nuw i8, ptr %1, i64 152
  tail call void @llvm.memcpy.p0.p0.i64(ptr noundef nonnull align 8 dereferenceable(16) %73, ptr noundef nonnull align 8 dereferenceable(16) %74, i64 16, i1 false)
  %75 = getelementptr inbounds i8, ptr %1, i64 96
  %76 = load i64, ptr %75, align 8, !tbaa !13
  %77 = getelementptr inbounds i8, ptr %0, i64 88
  store i64 %76, ptr %77, align 8, !tbaa !13
  ret void
}